target datalayout = "e-m:e-p270:32:32-p271:32:32-p272:64:64-i64:64-i128:128-f80:128-n8:16:32:64-S128"
target triple = "x86_64-pc-linux-gnu"

%struct.SDL_Rect = type { i32, i32, i32, i32 }
%struct.SDL_Point = type { i32, i32 }
%struct.SDL_Window = type { i32, ptr, ptr, i32, i32, i32, i32, i32, i32, i32, i32, float, float, i32, i32, i64, i64, float, i8, i8, i32, i32, %struct.SDL_Rect, %struct.SDL_Rect, %struct.SDL_Rect, i8, i8, i8, %struct.SDL_DisplayMode, %struct.SDL_DisplayMode, %struct.SDL_HDROutputProperties, float, ptr, i8, i8, i8, i8, i8, i8, i8, i8, i8, i32, i32, i32, i32, %struct.SDL_Rect, i32, i8, %struct.SDL_Rect, i32, %struct.SDL_Rect, ptr, ptr, i32, float, i32, i32, ptr, ptr, ptr, ptr, ptr, ptr, ptr, ptr, ptr }
%struct.SDL_DisplayMode = type { i32, i32, i32, i32, float, float, i32, i32, ptr }
%struct.SDL_HDROutputProperties = type { float, float }
%struct.SDL_WindowData = type { ptr, i64, ptr, i64, i8, %struct.XShmSegmentInfo, ptr, ptr, ptr, i8, i32, i32, i32, i32, i8, i8, i8, i64, i32, i64, i8, %struct.SDL_Point, %struct.XConfigureEvent, %struct.XConfigureEvent, ptr, i64, i64, i64, i8, i64, ptr, i8, [4 x i64], %struct.SDL_Rect, i64, %struct._XSyncValue, i8, %struct.SDL_Rect, %struct.SDL_DisplayMode, i32, i32, i8, i8, i8, i8, i8, i8, i8, i8, i32, %struct.XPoint, ptr, ptr, i32, i32, i8 }
%struct.XShmSegmentInfo = type { i64, i32, ptr, i32 }
%struct.XConfigureEvent = type { i32, i64, i32, ptr, i64, i64, i32, i32, i32, i32, i32, i64, i32 }
%struct._XSyncValue = type { i32, i32 }
%struct.XPoint = type { i16, i16 }

; Function Attrs: nounwind uwtable
define hidden zeroext i1 @X11_GLES_SwapWindow(ptr noundef %0, ptr noundef %1) #0 {
  %3 = alloca ptr, align 8
  %4 = alloca ptr, align 8
  %5 = alloca i8, align 1
  store ptr %0, ptr %3, align 8
  store ptr %1, ptr %4, align 8
  call void @llvm.lifetime.start.p0(i64 1, ptr %5) #3
  %6 = load ptr, ptr %3, align 8
  %7 = load ptr, ptr %4, align 8
  %8 = getelementptr inbounds nuw %struct.SDL_Window, ptr %7, i32 0, i32 59
  %9 = load ptr, ptr %8, align 8
  %10 = getelementptr inbounds nuw %struct.SDL_WindowData, ptr %9, i32 0, i32 30
  %11 = load ptr, ptr %10, align 8
  %12 = call zeroext i1 @SDL_EGL_SwapBuffers(ptr noundef %6, ptr noundef %11)
  %13 = zext i1 %12 to i8
  store i8 %13, ptr %5, align 1
  %14 = load ptr, ptr %4, align 8
  call void @X11_HandlePresent(ptr noundef %14)
  %15 = load i8, ptr %5, align 1, !range !3, !noundef !4
  %16 = trunc i8 %15 to i1
  call void @llvm.lifetime.end.p0(i64 1, ptr %5) #3
  ret i1 %16
}