; Function Attrs: nounwind uwtable
define hidden zeroext i1 @X11_GLES_SwapWindow(ptr noundef %0, ptr noundef %1) local_unnamed_addr #0 {
  %3 = getelementptr inbounds nuw i8, ptr %1, i64 392
  %4 = load ptr, ptr %3, align 8
  %5 = getelementptr inbounds nuw i8, ptr %4, i64 384
  %6 = load ptr, ptr %5, align 8
  %7 = tail call zeroext i1 @SDL_EGL_SwapBuffers(ptr noundef %0, ptr noundef %6) #4
  tail call void @X11_HandlePresent(ptr noundef %1) #4
  ret i1 %7
}